target datalayout = "e-m:e-p270:32:32-p271:32:32-p272:64:64-i64:64-i128:128-f80:128-n8:16:32:64-S128"
target triple = "x86_64-pc-linux-gnu"

%struct.WebPRescaler = type { i32, i32, i32, i32, i32, i32, i32, i32, i32, i32, i32, i32, i32, i32, i32, i32, i32, ptr, i32, ptr, ptr }

; Function Attrs: nounwind uwtable
define hidden i32 @WebPRescaleNeededLines(ptr noundef %0, i32 noundef %1) #0 {
  %3 = alloca ptr, align 8
  %4 = alloca i32, align 4
  %5 = alloca i32, align 4
  store ptr %0, ptr %3, align 8
  store i32 %1, ptr %4, align 4
  %6 = load ptr, ptr %3, align 8
  %7 = getelementptr inbounds %struct.WebPRescaler, ptr %6, i32 0, i32 6
  %8 = load i32, ptr %7, align 8
  %9 = load ptr, ptr %3, align 8
  %10 = getelementptr inbounds %struct.WebPRescaler, ptr %9, i32 0, i32 8
  %11 = load i32, ptr %10, align 8
  %12 = add nsw i32 %8, %11
  %13 = sub nsw i32 %12, 1
  %14 = load ptr, ptr %3, align 8
  %15 = getelementptr inbounds %struct.WebPRescaler, ptr %14, i32 0, i32 8
  %16 = load i32, ptr %15, align 8
  %17 = sdiv i32 %13, %16
  store i32 %17, ptr %5, align 4
  %18 = load i32, ptr %5, align 4
  %19 = load i32, ptr %4, align 4
  %20 = icmp sgt i32 %18, %19
  br i1 %20, label %21, label %23

21:                                               ; preds = %2
  %22 = load i32, ptr %4, align 4
  br label %25

23:                                               ; preds = %2
  %24 = load i32, ptr %5, align 4
  br label %25

25:                                               ; preds = %23, %21
  %26 = phi i32 [ %22, %21 ], [ %24, %23 ]
  ret i32 %26
}