; Function Attrs: mustprogress nofree norecurse nosync nounwind willreturn memory(argmem: read) uwtable
define hidden i32 @WebPRescaleNeededLines(ptr nocapture noundef readonly %0, i32 noundef %1) local_unnamed_addr #4 {
  %3 = getelementptr inbounds i8, ptr %0, i64 24
  %4 = load i32, ptr %3, align 8
  %5 = getelementptr inbounds i8, ptr %0, i64 32
  %6 = load i32, ptr %5, align 8
  %7 = add i32 %4, -1
  %8 = add i32 %7, %6
  %9 = sdiv i32 %8, %6
  %10 = tail call i32 @llvm.smin.i32(i32 %9, i32 %1)
  ret i32 %10
}